# File imp_dis_edit.asm
0000			;;; this is imp_dis.asm hand-edited with comments (as well as comments that were 
0000			;;; annotated in by dis_rom 
0000			 
0000			L_030F: equ $030F 
0000			L_2800: equ $2800 
0000			 
0000			        org $0000 
0000			 
0000			;;; PIO A[7] - OUT error LED 
0000			;;; PIO A[6] - OUT buffer full 
0000			;;; PIO A[5] - OUT enable paper (vertical) feed 
0000			;;; PIO A[4] - IN  online switch sense 
0000			;;; PIO A[3] - IN  linefeed switch sense 
0000			;;; PIO A[2] - IN  LH carriage position sense 
0000			;;; PIO A[1] - IN  RH carriage position sense 
0000			;;; PIO A[0] - IN  ??? skt1 
0000			;;; PIO B[7] - OUT enable head motor (horizontal motion) 
0000			;;; PIO B[6:0] - OUT print head; forms a vertical column/pattern of 7 dots 
0000			 
0000			COLD: 
0000 31 33 28		        ld sp, $2833 
0003 c3 6a 02		        jp COLD1 
0006			 
0006			 
0006			        ; Start of unknown area $0006 to $0007 
0006 ff ff		        defb $FF, $FF 
0008			        ; End of unknown area $0006 to $0007 
0008			 
0008			 
0008			X_RST8: 
0008 23			        inc hl 
0009 7e			        ld a, (hl) 
000a b7			        or a 
000b c0			        ret nz 
000c 21 85 28		        ld hl, $2885 
000f c9			        ret 
0010			 
0010			 
0010			X_RST10: 
0010 2b			        dec hl 
0011 7e			        ld a, (hl) 
0012 b7			        or a 
0013 c0			        ret nz 
0014 21 fe 2b		        ld hl, $2BFE 
0017 c9			        ret 
0018			 
0018			 
0018			X_RST18: 
0018 db 30		        in a, ($30) 
001a cb bf		        res 7, a 
001c d3 30		        out ($30), a 
001e c9			        ret 
001f			 
001f			 
001f			        ; Start of unknown area $001F to $001F 
001f ff			        defb $FF 
0020			        ; End of unknown area $001F to $001F 
0020			 
0020			 
0020			X_RST20: 
0020 e5			        push hl 
0021 21 6f 01		        ld hl, L_016F 
0024 22 01 28		        ld ($2801), hl 
0027 e1			        pop hl 
0028 dd cb 00 b6	        res 6, (ix+0) 
002c c9			        ret 
002d			 
002d			 
002d			        ; Start of unknown area $002D to $002F 
002d ff ff ff		        defb $FF, $FF, $FF 
0030			        ; End of unknown area $002D to $002F 
0030			 
0030			 
0030			X_RST30: 
0030 db 30		        in a, ($30) 
0032 2f			        cpl 
0033 e6 06		        and $06 
0035 c9			        ret 
0036			 
0036			 
0036			        ; Start of unknown area $0036 to $0037 
0036 ff ff		        defb $FF, $FF 
0038			        ; End of unknown area $0036 to $0037 
0038			 
0038			 
0038			X_RST38: 
0038 dd cb 00 66	        bit 4, (ix+0) 
003c 28 05		        jr z, L_0043 
003e dd cb 00 a6	        res 4, (ix+0) 
0042 c9			        ret 
0043			 
0043			 
0043			L_0043: 
0043 dd cb 00 e6	        set 4, (ix+0) 
0047 c9			        ret 
0048			 
0048			 
0048			L_0048: 
0048 dd cb 00 f6	        set 6, (ix+0)             ;  
004c f5			        push af                 ;  
004d c5			        push bc                 ;  
004e 06 08		        ld b, $08               ;  
0050 af			        xor a                   ;  
0051 32 05 28		        ld ($2805), a           ; enable head motion?? 
0054			 
0054			L_0054: 
0054 0e 0a		        ld c, $0A               ;  
0056			 
0056			L_0056: 
0056 76			        halt                    ; wait for NMI at 1.2kHz  
0057 0d			        dec c                   ;  
0058 20 fc		        jr nz, L_0056           ; got 10 of them 
005a ee 80		        xor $80                 ;  
005c 32 05 28		        ld ($2805), a           ; toggle head motion enable 
005f 10 f3		        djnz L_0054             ; go do it again, 8 times in total 
0061 c1			        pop bc                  ;  
0062 f1			        pop af                  ;  
0063 c9			        ret                     ;  
0064			 
0064			 
0064			        ; Start of unknown area $0064 to $0065 
0064 ff ff		        defb $FF, $FF 
0066			        ; End of unknown area $0064 to $0065 
0066			 
0066			 
0066			X_NMI: 
0066 f5			        push af                 ; Come here on NMI at 1.2kHz 
0067 3a 05 28		        ld a, ($2805)           ; get data for print head 
006a d3 31		        out ($31), a            ; send it to port B data 
006c e5			        push hl                 ; ?? but HL does not get popped ?? 
006d 21 03 28		        ld hl, $2803            ; various count values end up in here: 5, 35, 10 
0070 35			        dec (hl)                ;  
0071 c3 00 28		        jp L_2800               ; 2800 is loaded with RET (should really be RETN!!) 
0074			 
0074			 
0074			X_0074: 
0074 c2 6f 01		        jp nz, L_016F 
0077 db 30		        in a, ($30) 
0079 cb ef		        set 5, a 
007b d3 30		        out ($30), a 
007d cb af		        res 5, a 
007f d3 30		        out ($30), a 
0081 36 0a		        ld (hl), $0A 
0083 d9			        exx 
0084 10 01		        djnz L_0087 
0086 e7			        rst $20 
0087			 
0087			L_0087: 
0087 d9			        exx 
0088 c3 6f 01		        jp L_016F 
008b			 
008b			 
008b			X_008B: 
008b f7			        rst $30 
008c c2 6f 01		        jp nz, L_016F 
008f 21 d6 00		        ld hl, X_00D6 
0092 22 01 28		        ld ($2801), hl 
0095 d9			        exx 
0096 06 01		        ld b, $01 
0098 21 33 28		        ld hl, $2833 
009b dd cb 00 66	        bit 4, (ix+0) 
009f 28 03		        jr z, L_00A4 
00a1 21 84 28		        ld hl, $2884 
00a4			 
00a4			L_00A4: 
00a4 d9			        exx 
00a5 21 03 28		        ld hl, $2803 
00a8 36 05		        ld (hl), $05 
00aa c3 6f 01		        jp L_016F 
00ad			 
00ad			 
00ad			X_00AD: 
00ad f7			        rst $30 
00ae ca 6f 01		        jp z, L_016F 
00b1 dd cb 00 66	        bit 4, (ix+0) 
00b5 20 04		        jr nz, L_00BB 
00b7 cb 57		        bit 2, a 
00b9 18 02		        jr L_00BD 
00bb			 
00bb			 
00bb			L_00BB: 
00bb cb 4f		        bit 1, a 
00bd			 
00bd			L_00BD: 
00bd ca 6f 01		        jp z, L_016F 
00c0 e5			        push hl 
00c1 21 ca 00		        ld hl, $00CA 
00c4 22 01 28		        ld ($2801), hl 
00c7 e1			        pop hl 
00c8 36 8c		        ld (hl), $8C 
00ca c2 6f 01		        jp nz, L_016F 
00cd 3e 80		        ld a, $80 
00cf 32 05 28		        ld ($2805), a 
00d2 e7			        rst $20 
00d3 c3 6f 01		        jp L_016F 
00d6			 
00d6			 
00d6			X_00D6: 
00d6 c2 6f 01		        jp nz, L_016F 
00d9 36 01		        ld (hl), $01 
00db d9			        exx 
00dc 05			        dec b 
00dd 28 2e		        jr z, L_010D 
00df cb 40		        bit 0, b 
00e1 20 24		        jr nz, L_0107 
00e3 1a			        ld a, (de) 
00e4 dd cb 00 4e	        bit 1, (ix+0) 
00e8 28 12		        jr z, L_00FC 
00ea cb 48		        bit 1, b 
00ec 28 19		        jr z, L_0107 
00ee dd b6 02		        or (ix+$02) 
00f1 4f			        ld c, a 
00f2 1a			        ld a, (de) 
00f3 32 06 28		        ld ($2806), a 
00f6 78			        ld a, b 
00f7 fe 06		        cp $06 
00f9 79			        ld a, c 
00fa 28 0c		        jr z, L_0108 
00fc			 
00fc			L_00FC: 
00fc 13			        inc de 
00fd dd cb 00 66	        bit 4, (ix+0) 
0101 28 05		        jr z, L_0108 
0103 1b			        dec de 
0104 1b			        dec de 
0105 18 01		        jr L_0108 
0107			 
0107			 
0107			L_0107: 
0107 af			        xor a 
0108			 
0108			L_0108: 
0108 32 05 28		        ld ($2805), a 
010b 18 61		        jr L_016E 
010d			 
010d			 
010d			L_010D: 
010d d9			        exx 
010e 36 05		        ld (hl), $05 
0110 dd cb 00 4e	        bit 1, (ix+0) 
0114 28 02		        jr z, L_0118 
0116 36 08		        ld (hl), $08 
0118			 
0118			L_0118: 
0118 d9			        exx 
0119 2c			        inc l 
011a dd cb 00 66	        bit 4, (ix+0) 
011e 28 02		        jr z, L_0122 
0120 2d			        dec l 
0121 2d			        dec l 
0122			 
0122			L_0122: 
0122 b6			        or (hl) 
0123 20 0c		        jr nz, L_0131 
0125 dd cb 00 ae	        res 5, (ix+0) 
0129 21 ad 00		        ld hl, X_00AD 
012c 22 01 28		        ld ($2801), hl 
012f 18 3d		        jr L_016E 
0131			 
0131			 
0131			L_0131: 
0131 17			        rla 
0132 dd cb 00 8e	        res 1, (ix+0) 
0136 30 0d		        jr nc, L_0145 
0138 dd cb 00 ce	        set 1, (ix+0) 
013c 2c			        inc l 
013d dd cb 00 66	        bit 4, (ix+0) 
0141 28 02		        jr z, L_0145 
0143 2d			        dec l 
0144 2d			        dec l 
0145			 
0145			L_0145: 
0145 0f			        rrca 
0146 d6 02		        sub $02 
0148 4f			        ld c, a 
0149 06 00		        ld b, $00 
014b 07			        rlca 
014c 5f			        ld e, a 
014d 50			        ld d, b 
014e eb			        ex de, hl 
014f 29			        add hl, hl 
0150 29			        add hl, hl 
0151 ed 42		        sbc hl, bc 
0153 dd 70 02		        ld (ix+$02), b 
0156 01 60 05		        ld bc, $0560 
0159 dd cb 00 66	        bit 4, (ix+0) 
015d 28 03		        jr z, L_0162 
015f 01 66 05		        ld bc, $0566 
0162			 
0162			L_0162: 
0162 09			        add hl, bc 
0163 06 0f		        ld b, $0F 
0165 dd cb 00 4e	        bit 1, (ix+0) 
0169 28 02		        jr z, L_016D 
016b 06 1f		        ld b, $1F 
016d			 
016d			L_016D: 
016d eb			        ex de, hl 
016e			 
016e			L_016E: 
016e d9			        exx 
016f			 
016f			L_016F: 
016f 23			        inc hl 
0170 cb 56		        bit 2, (hl) 
0172 ca 43 02		        jp z, L_0243 
0175 db 28		        in a, ($28) 
0177 17			        rla 
0178 da 43 02		        jp c, L_0243 
017b cb 96		        res 2, (hl) 
017d 2a 09 28		        ld hl, ($2809) 
0180 2f			        cpl 
0181 e6 1c		        and $1C 
0183 db 18		        in a, ($18) 
0185 28 03		        jr z, L_018A 
0187 df			        rst $18 
0188 3e 7f		        ld a, $7F 
018a			 
018a			L_018A: 
018a e6 7f		        and $7F 
018c dd cb 00 46	        bit 0, (ix+0) 
0190 20 4f		        jr nz, L_01E1 
0192 d6 20		        sub $20 
0194 3c			        inc a 
0195 3c			        inc a 
0196 d2 39 02		        jp nc, L_0239 
0199 fe ef		        cp $EF 
019b ca 23 02		        jp z, L_0223 
019e fe ec		        cp $EC 
01a0 ca 37 02		        jp z, L_0237 
01a3 fe ee		        cp $EE 
01a5 28 78		        jr z, L_021F 
01a7 fe ea		        cp $EA 
01a9 28 59		        jr z, L_0204 
01ab fe eb		        cp $EB 
01ad 28 6c		        jr z, L_021B 
01af fe e6		        cp $E6 
01b1 28 60		        jr z, L_0213 
01b3 fe e7		        cp $E7 
01b5 28 60		        jr z, L_0217 
01b7 fe e4		        cp $E4 
01b9 28 3d		        jr z, L_01F8 
01bb fe e5		        cp $E5 
01bd 28 3f		        jr z, L_01FE 
01bf fe 01		        cp $01 
01c1 20 79		        jr nz, L_023C 
01c3 dd cb 00 c6	        set 0, (ix+0) 
01c7 e5			        push hl 
01c8 21 f8 02		        ld hl, L_02F8 
01cb 22 07 28		        ld ($2807), hl 
01ce e1			        pop hl 
01cf 7e			        ld a, (hl) 
01d0 fe 01		        cp $01 
01d2 28 68		        jr z, L_023C 
01d4 fe 65		        cp $65 
01d6 28 64		        jr z, L_023C 
01d8 fe 67		        cp $67 
01da 28 60		        jr z, L_023C 
01dc 07			        rlca 
01dd 38 5d		        jr c, L_023C 
01df 18 56		        jr L_0237 
01e1			 
01e1			 
01e1			L_01E1: 
01e1 f6 80		        or $80 
01e3 f5			        push af 
01e4 e5			        push hl 
01e5 2a 07 28		        ld hl, ($2807) 
01e8 2b			        dec hl 
01e9 22 07 28		        ld ($2807), hl 
01ec 7c			        ld a, h 
01ed b5			        or l 
01ee e1			        pop hl 
01ef 20 04		        jr nz, L_01F5 
01f1 dd cb 00 86	        res 0, (ix+0) 
01f5			 
01f5			L_01F5: 
01f5 f1			        pop af 
01f6 18 41		        jr L_0239 
01f8			 
01f8			 
01f8			L_01F8: 
01f8 dd cb 00 9e	        res 3, (ix+0) 
01fc 18 3e		        jr L_023C 
01fe			 
01fe			 
01fe			L_01FE: 
01fe dd cb 00 de	        set 3, (ix+0) 
0202 18 38		        jr L_023C 
0204			 
0204			 
0204			L_0204: 
0204 7e			        ld a, (hl) 
0205 fe 65		        cp $65 
0207 30 33		        jr nc, L_023C 
0209 3d			        dec a 
020a 28 30		        jr z, L_023C 
020c 36 01		        ld (hl), $01 
020e d7			        rst $10 
020f fd 23		        inc iy 
0211 18 29		        jr L_023C 
0213			 
0213			 
0213			L_0213: 
0213 3e 62		        ld a, $62 
0215 18 22		        jr L_0239 
0217			 
0217			 
0217			L_0217: 
0217 3e 63		        ld a, $63 
0219 18 1e		        jr L_0239 
021b			 
021b			 
021b			L_021B: 
021b 3e 64		        ld a, $64 
021d 18 1a		        jr L_0239 
021f			 
021f			 
021f			L_021F: 
021f 3e 67		        ld a, $67 
0221 18 16		        jr L_0239 
0223			 
0223			 
0223			L_0223: 
0223 7e			        ld a, (hl) 
0224 fe 66		        cp $66 
0226 28 14		        jr z, L_023C 
0228 fe 65		        cp $65 
022a 28 10		        jr z, L_023C 
022c 3e 66		        ld a, $66 
022e cd 47 02		        call L_0247 
0231 db 30		        in a, ($30) 
0233 cb 47		        bit 0, a 
0235 20 05		        jr nz, L_023C 
0237			 
0237			L_0237: 
0237 3e 65		        ld a, $65 
0239			 
0239			L_0239: 
0239 cd 47 02		        call L_0247 
023c			 
023c			L_023C: 
023c 22 09 28		        ld ($2809), hl 
023f dd cb 00 d6	        set 2, (ix+0) 
0243			 
0243			L_0243: 
0243 e1			        pop hl 
0244 f1			        pop af 
0245 ed 45		        retn 
0247			 
0247			 
0247			L_0247: 
0247 f5			        push af 
0248 cf			        rst $08 
0249 7e			        ld a, (hl) 
024a fe 01		        cp $01 
024c 28 04		        jr z, L_0252 
024e d7			        rst $10 
024f df			        rst $18 
0250 f1			        pop af 
0251 c9			        ret 
0252			 
0252			 
0252			L_0252: 
0252 f1			        pop af 
0253 77			        ld (hl), a 
0254 fd 2b		        dec iy 
0256 fd e5		        push iy 
0258 e3			        ex (sp), hl 
0259 7c			        ld a, h 
025a b7			        or a 
025b 20 0b		        jr nz, L_0268 
025d 7d			        ld a, l 
025e fe 05		        cp $05 
0260 30 06		        jr nc, L_0268 
0262 db 30		        in a, ($30) 
0264 cb b7		        res 6, a 
0266 d3 30		        out ($30), a 
0268			 
0268			L_0268: 
0268 e1			        pop hl 
0269 c9			        ret 
026a			 
026a			 
026a			COLD1: 
026a 3e c9		        ld a, $C9               ; RET 
026c 32 00 28		        ld (L_2800), a          ;  
026f 3e 0f		        ld a, $0F               ; Port B output mode -- one-time setup of PIO 
0271 d3 33		        out ($33), a            ; PIO B Ctrl 
0273 3e cf		        ld a, $CF               ; Port A control mode 
0275 d3 32		        out ($32), a            ; PIO A Ctrl 
0277 3e 1f		        ld a, $1F               ; Port A [7:5] output, [4:0] input 
0279 d3 32		        out ($32), a            ; PIO A Ctrl 
027b 3e 80		        ld a, $80               ; Enable/disable head motor? All print heads OFF 
027d d3 31		        out ($31), a            ; PIO B Data 
027f 32 05 28		        ld ($2805), a           ; next print head data? 
0282 dd 21 04 28	        ld ix, $2804            ;  
0286 e7			        rst $20                 ;  
0287 dd 36 00 00	        ld (ix+0), $00            ;  
028b dd 36 fc c3	        ld (ix-$04), $C3        ;  
028f cd 7e 04		        call L_047E 
0292 af			        xor a 
0293 cb ff		        set 7, a 
0295 d3 30		        out ($30), a 
0297 af			        xor a 
0298 32 33 28		        ld ($2833), a 
029b fd 21 7a 03	        ld iy, L_037A 
029f 01 79 03		        ld bc, $0379 
02a2 11 86 28		        ld de, $2886 
02a5 21 84 28		        ld hl, $2884 
02a8 77			        ld (hl), a 
02a9 23			        inc hl 
02aa 22 0b 28		        ld ($280B), hl 
02ad 36 01		        ld (hl), $01 
02af ed b0		        ldir 
02b1 12			        ld (de), a 
02b2 21 fe 2b		        ld hl, $2BFE 
02b5 22 09 28		        ld ($2809), hl 
02b8 db 30		        in a, ($30) 
02ba cb 5f		        bit 3, a 
02bc 20 3a		        jr nz, L_02F8 
02be 11 85 28		        ld de, $2885 
02c1 21 23 05		        ld hl, $0523 
02c4 01 18 00		        ld bc, X_RST18 
02c7 ed b0		        ldir 
02c9 eb			        ex de, hl 
02ca 06 04		        ld b, $04 
02cc			 
02cc			L_02CC: 
02cc 3e 02		        ld a, $02 
02ce			 
02ce			L_02CE: 
02ce 77			        ld (hl), a 
02cf 23			        inc hl 
02d0 3c			        inc a 
02d1 fe 62		        cp $62 
02d3 20 f9		        jr nz, L_02CE 
02d5 36 65		        ld (hl), $65 
02d7 23			        inc hl 
02d8 3e 02		        ld a, $02 
02da			 
02da			L_02DA: 
02da 0e 28		        ld c, $28 
02dc 36 62		        ld (hl), $62 
02de 23			        inc hl 
02df			 
02df			L_02DF: 
02df 77			        ld (hl), a 
02e0 23			        inc hl 
02e1 3c			        inc a 
02e2 0d			        dec c 
02e3 28 f5		        jr z, L_02DA 
02e5 fe 62		        cp $62 
02e7 20 f6		        jr nz, L_02DF 
02e9 36 65		        ld (hl), $65 
02eb 23			        inc hl 
02ec 10 de		        djnz L_02CC 
02ee 2b			        dec hl 
02ef 36 67		        ld (hl), $67 
02f1 22 09 28		        ld ($2809), hl 
02f4 fd 21 4e 00	        ld iy, $004E 
02f8			 
02f8			L_02F8: 
02f8 db 30		        in a, ($30) 
02fa cb ff		        set 7, a 
02fc d3 30		        out ($30), a 
02fe			 
02fe			L_02FE: 
02fe cd f3 03		        call L_03F3 
0301 2a 0b 28		        ld hl, ($280B) 
0304 cb 7e		        bit 7, (hl) 
0306 c2 96 04		        jp nz, L_0496 
0309 7e			        ld a, (hl) 
030a fe 01		        cp $01 
030c 28 ea		        jr z, L_02F8 
030e 3e cf		        ld a, $CF 
0310 7e			        ld a, (hl) 
0311 fe 01		        cp $01 
0313 28 e9		        jr z, L_02FE 
0315 fe 65		        cp $65 
0317 38 f6		        jr c, L_030F 
0319 dd cb 00 fe	        set 7, (ix+0) 
031d 2a 0b 28		        ld hl, ($280B) 
0320 01 00 50		        ld bc, $5000 
0323 11 34 28		        ld de, $2834 
0326			 
0326			L_0326: 
0326 7e			        ld a, (hl) 
0327 fe 65		        cp $65 
0329 30 4f		        jr nc, L_037A 
032b 36 01		        ld (hl), $01 
032d f5			        push af 
032e cf			        rst $08 
032f fd 23		        inc iy 
0331 f1			        pop af 
0332 fe 62		        cp $62 
0334 38 28		        jr c, L_035E 
0336 28 08		        jr z, L_0340 
0338 fe 64		        cp $64 
033a 28 0c		        jr z, L_0348 
033c 0e 00		        ld c, $00 
033e 18 e6		        jr L_0326 
0340			 
0340			 
0340			L_0340: 
0340 78			        ld a, b 
0341 3d			        dec a 
0342 28 e2		        jr z, L_0326 
0344 0e 80		        ld c, $80 
0346 18 de		        jr L_0326 
0348			 
0348			 
0348			L_0348: 
0348 3e 50		        ld a, $50 
034a 90			        sub b 
034b e6 07		        and $07 
034d eb			        ex de, hl 
034e 18 04		        jr L_0354 
0350			 
0350			 
0350			L_0350: 
0350 36 02		        ld (hl), $02 
0352 2c			        inc l 
0353 05			        dec b 
0354			 
0354			L_0354: 
0354 3c			        inc a 
0355 fe 08		        cp $08 
0357 20 f7		        jr nz, L_0350 
0359 eb			        ex de, hl 
035a 3e 02		        ld a, $02 
035c 18 0e		        jr L_036C 
035e			 
035e			 
035e			L_035E: 
035e b1			        or c 
035f f2 6c 03		        jp p, L_036C 
0362 05			        dec b 
0363 28 04		        jr z, L_0369 
0365 12			        ld (de), a 
0366 1c			        inc e 
0367 18 03		        jr L_036C 
0369			 
0369			 
0369			L_0369: 
0369 04			        inc b 
036a e6 7f		        and $7F 
036c			 
036c			L_036C: 
036c 12			        ld (de), a 
036d 1c			        inc e 
036e e6 7f		        and $7F 
0370 fe 02		        cp $02 
0372 28 04		        jr z, L_0378 
0374 dd cb 00 be	        res 7, (ix+0) 
0378			 
0378			L_0378: 
0378 10 ac		        djnz L_0326 
037a			 
037a			L_037A: 
037a 22 0b 28		        ld ($280B), hl 
037d eb			        ex de, hl 
037e 78			        ld a, b 
037f b7			        or a 
0380 28 05		        jr z, L_0387 
0382			 
0382			L_0382: 
0382 36 02		        ld (hl), $02 
0384 2c			        inc l 
0385 10 fb		        djnz L_0382 
0387			 
0387			L_0387: 
0387 dd cb 00 7e	        bit 7, (ix+0) 
038b 20 20		        jr nz, L_03AD 
038d cd e9 03		        call L_03E9 
0390 cd 48 00		        call L_0048 
0393 21 8b 00		        ld hl, X_008B 
0396 22 01 28		        ld ($2801), hl 
0399 dd cb 00 ee	        set 5, (ix+0) 
039d			 
039d			L_039D: 
039d cd f3 03		        call L_03F3 
03a0 dd cb 00 6e	        bit 5, (ix+0) 
03a4 20 f7		        jr nz, L_039D 
03a6 dd cb 00 5e	        bit 3, (ix+0) 
03aa cc 38 00		        call z, X_RST38 
03ad			 
03ad			L_03AD: 
03ad 2a 0b 28		        ld hl, ($280B) 
03b0 7e			        ld a, (hl) 
03b1 fe 65		        cp $65 
03b3 38 1e		        jr c, L_03D3 
03b5			 
03b5			L_03B5: 
03b5 36 01		        ld (hl), $01 
03b7 fd 23		        inc iy 
03b9 47			        ld b, a 
03ba cf			        rst $08 
03bb 78			        ld a, b 
03bc 22 0b 28		        ld ($280B), hl 
03bf fe 65		        cp $65 
03c1 28 10		        jr z, L_03D3 
03c3 fe 67		        cp $67 
03c5 28 15		        jr z, L_03DC 
03c7 7e			        ld a, (hl) 
03c8 fe 65		        cp $65 
03ca 28 e9		        jr z, L_03B5 
03cc fe 67		        cp $67 
03ce 28 e5		        jr z, L_03B5 
03d0 c3 fe 02		        jp L_02FE 
03d3			 
03d3			 
03d3			L_03D3: 
03d3 cd e9 03		        call L_03E9 
03d6 cd 68 04		        call L_0468 
03d9 c3 fe 02		        jp L_02FE 
03dc			 
03dc			 
03dc			L_03DC: 
03dc cd e9 03		        call L_03E9 
03df d9			        exx 
03e0 06 90		        ld b, $90 
03e2 d9			        exx 
03e3 cd 6c 04		        call L_046C 
03e6 c3 fe 02		        jp L_02FE 
03e9			 
03e9			 
03e9			L_03E9: 
03e9 dd cb 00 76	        bit 6, (ix+0) 
03ed c8			        ret z 
03ee cd f3 03		        call L_03F3 
03f1 18 f6		        jr L_03E9 
03f3			 
03f3			 
03f3			L_03F3: 
03f3 db 30		        in a, ($30) 
03f5 cb 67		        bit 4, a 
03f7 20 21		        jr nz, L_041A 
03f9 fd e5		        push iy 
03fb e3			        ex (sp), hl 
03fc 7c			        ld a, h 
03fd b7			        or a 
03fe 20 05		        jr nz, L_0405 
0400 7d			        ld a, l 
0401 fe 14		        cp $14 
0403 38 06		        jr c, L_040B 
0405			 
0405			L_0405: 
0405 db 30		        in a, ($30) 
0407 cb f7		        set 6, a 
0409 d3 30		        out ($30), a 
040b			 
040b			L_040B: 
040b e1			        pop hl 
040c dd cb 00 56	        bit 2, (ix+0) 
0410 20 10		        jr nz, L_0422 
0412 db 18		        in a, ($18) 
0414 dd cb 00 d6	        set 2, (ix+0) 
0418 18 08		        jr L_0422 
041a			 
041a			 
041a			L_041A: 
041a dd cb 00 96	        res 2, (ix+0) 
041e cb b7		        res 6, a 
0420 d3 30		        out ($30), a 
0422			 
0422			L_0422: 
0422 dd cb 00 76	        bit 6, (ix+0) 
0426 c0			        ret nz 
0427 db 30		        in a, ($30) 
0429 cb 5f		        bit 3, a 
042b c0			        ret nz 
042c e5			        push hl 
042d c5			        push bc 
042e 21 03 28		        ld hl, $2803 
0431 36 23		        ld (hl), $23 
0433			 
0433			L_0433: 
0433 7e			        ld a, (hl) 
0434 fe 05		        cp $05 
0436 30 fb		        jr nc, L_0433 
0438 db 30		        in a, ($30) 
043a cb 5f		        bit 3, a 
043c 20 27		        jr nz, L_0465 
043e cd 68 04		        call L_0468 
0441			 
0441			L_0441: 
0441 dd cb 00 76	        bit 6, (ix+0) 
0445 20 fa		        jr nz, L_0441 
0447 06 05		        ld b, $05 
0449			 
0449			L_0449: 
0449 36 ff		        ld (hl), $FF 
044b			 
044b			L_044B: 
044b db 30		        in a, ($30) 
044d cb 5f		        bit 3, a 
044f 20 14		        jr nz, L_0465 
0451 7e			        ld a, (hl) 
0452 fe 05		        cp $05 
0454 30 f5		        jr nc, L_044B 
0456 10 f1		        djnz L_0449 
0458			 
0458			L_0458: 
0458 dd cb 00 76	        bit 6, (ix+0) 
045c cc 68 04		        call z, L_0468 
045f db 30		        in a, ($30) 
0461 cb 5f		        bit 3, a 
0463 28 f3		        jr z, L_0458 
0465			 
0465			L_0465: 
0465 c1			        pop bc 
0466 e1			        pop hl 
0467 c9			        ret 
0468			 
0468			 
0468			L_0468: 
0468 d9			        exx 
0469 06 18		        ld b, $18 
046b d9			        exx 
046c			 
046c			L_046C: 
046c 3e 0a		        ld a, $0A 
046e 32 03 28		        ld ($2803), a 
0471 dd cb 00 f6	        set 6, (ix+0) 
0475 e5			        push hl 
0476 21 74 00		        ld hl, X_0074 
0479 22 01 28		        ld ($2801), hl 
047c e1			        pop hl 
047d c9			        ret 
047e			 
047e			 
047e			L_047E: 
047e db 30		        in a, ($30) 
0480 cb 57		        bit 2, a 
0482 c8			        ret z 
0483 cd 48 00		        call L_0048 
0486 dd cb 00 a6	        res 4, (ix+0) 
048a			 
048a			L_048A: 
048a db 30		        in a, ($30) 
048c cb 57		        bit 2, a 
048e 20 fa		        jr nz, L_048A 
0490 dd 36 01 80	        ld (ix+$01), $80 
0494 e7			        rst $20 
0495 c9			        ret 
0496			 
0496			 
0496			L_0496: 
0496 cd 7e 04		        call L_047E 
0499			 
0499			L_0499: 
0499 cd f3 03		        call L_03F3 
049c fd e5		        push iy 
049e e3			        ex (sp), hl 
049f 11 7d ff		        ld de, $FF7D 
04a2 19			        add hl, de 
04a3 e1			        pop hl 
04a4 38 f3		        jr c, L_0499 
04a6 dd cb 00 76	        bit 6, (ix+0) 
04aa 20 ed		        jr nz, L_0499 
04ac e5			        push hl 
04ad d9			        exx 
04ae e1			        pop hl 
04af 01 f0 05		        ld bc, $05F0 
04b2 d9			        exx 
04b3 af			        xor a 
04b4 32 06 28		        ld ($2806), a 
04b7 cd 48 00		        call L_0048 
04ba 21 d7 04		        ld hl, X_04D7 
04bd 22 01 28		        ld ($2801), hl 
04c0 dd cb 00 ee	        set 5, (ix+0) 
04c4 cd e9 03		        call L_03E9 
04c7 21 ad 00		        ld hl, X_00AD 
04ca 22 01 28		        ld ($2801), hl 
04cd dd cb 00 f6	        set 6, (ix+0) 
04d1 cd e9 03		        call L_03E9 
04d4 c3 f8 02		        jp L_02F8 
04d7			 
04d7			 
04d7			X_04D7: 
04d7 f7			        rst $30 
04d8 c2 6f 01		        jp nz, L_016F 
04db d9			        exx 
04dc 11 e7 04		        ld de, X_04E7 
04df ed 53 01 28	        ld ($2801), de 
04e3 d9			        exx 
04e4 c3 6f 01		        jp L_016F 
04e7			 
04e7			 
04e7			X_04E7: 
04e7 d9			        exx 
04e8 16 00		        ld d, $00 
04ea 0b			        dec bc 
04eb cb 41		        bit 0, c 
04ed 28 15		        jr z, L_0504 
04ef 7e			        ld a, (hl) 
04f0 e6 7f		        and $7F 
04f2 36 01		        ld (hl), $01 
04f4 57			        ld d, a 
04f5 cf			        rst $08 
04f6 fd 23		        inc iy 
04f8 7a			        ld a, d 
04f9 dd a6 02		        and (ix+$02) 
04fc 28 03		        jr z, L_0501 
04fe aa			        xor d 
04ff 57			        ld d, a 
0500 df			        rst $18 
0501			 
0501			L_0501: 
0501 dd 72 02		        ld (ix+$02), d 
0504			 
0504			L_0504: 
0504 dd 72 01		        ld (ix+$01), d 
0507 78			        ld a, b 
0508 b1			        or c 
0509 20 14		        jr nz, L_051F 
050b 11 74 00		        ld de, X_0074 
050e ed 53 01 28	        ld ($2801), de 
0512 06 0e		        ld b, $0E 
0514 dd 36 ff 01	        ld (ix-$01), $01 
0518 22 0b 28		        ld ($280B), hl 
051b dd cb 00 ae	        res 5, (ix+0) 
051f			 
051f			L_051F: 
051f d9			        exx 
0520 c3 6f 01		        jp L_016F 
0523			 
0523			 
0523			        ; Start of unknown area $0523 to $055F 
0523 64 62 2b 2f 32 54 4b 50 56 02 38 13 10	        defb $64, $62, $2B, $2F, $32, $54, $4B, $50, $56, $02, $38, $13, $10 
0530 12 02 13 14 0f 12 15 0f 1a 13 65 36 b7 22 2e 37	        defb $12, $02, $13, $14, $0F, $12, $15, $0F, $1A, $13, $65, $36, $B7, $22, $2E, $37 
0540 0e 03 c4 a9 19 f1 fe 2c ca a7 27 c9 3a 1c 37 b7	        defb $0E, $03, $C4, $A9, $19, $F1, $FE, $2C, $CA, $A7, $27, $C9, $3A, $1C, $37, $B7 
0550 c2 98 04 cd 7b 0b 2a 35 37 2b cd 15 47 b7 ca ed	        defb $C2, $98, $04, $CD, $7B, $0B, $2A, $35, $37, $2B, $CD, $15, $47, $B7, $CA, $ED 
0560			        ; End of unknown area $0523 to $055F 
0560			 
0560			;;; Character set. Each character takes 7 bytes 
0560			;;; 96 characters, for ASCII codes 0x20 (32) - 0x7f (128) 
0560			;;; bits [6:0] of each byte represent a vertical line; MSB at the top. 
0560			;;; the middle rows are kind-of smeared together in pairs?? 
0560 00 00 00 00 00 00 00	        defb $00, $00, $00, $00, $00, $00, $00 ;20 ASCII " " 
0567 00 00 00 7d 00 00 00	        defb $00, $00, $00, $7D, $00, $00, $00 ;21 
056e 00 70 00 00 00 70 00	        defb $00, $70, $00, $00, $00, $70, $00 ;22 
0575 09 00 3f 40 09 40 2b	        defb $09, $00, $3F, $40, $09, $40, $2B ;23 
057c 10 2a 00 7f 00 2a 04	        defb $10, $2A, $00, $7F, $00, $2A, $04 ;24 
0583 61 02 64 08 13 20 43	        defb $61, $02, $64, $08, $13, $20, $43 ;25 
058a 02 25 50 09 54 22 01	        defb $02, $25, $50, $09, $54, $22, $01 ;26 
0591 00 00 10 20 40 00 00	        defb $00, $00, $10, $20, $40, $00, $00 ;27 
0598 1c 22 41 00 00 00 00	        defb $1C, $22, $41, $00, $00, $00, $00 ;28 
059f 00 00 00 00 41 22 1c	        defb $00, $00, $00, $00, $41, $22, $1C ;29 
05a6 22 14 08 77 08 14 22	        defb $22, $14, $08, $77, $08, $14, $22 ;2A 
05ad 08 00 08 36 08 00 08	        defb $08, $00, $08, $36, $08, $00, $08 ;2B 
05b4 00 00 0d 02 0c 00 00	        defb $00, $00, $0D, $02, $0C, $00, $00 ;2C 
05bb 08 00 08 00 08 00 08	        defb $08, $00, $08, $00, $08, $00, $08 ;2D 
05c2 00 00 03 00 03 00 00	        defb $00, $00, $03, $00, $03, $00, $00 ;2E 
05c9 01 02 04 08 10 20 40	        defb $01, $02, $04, $08, $10, $20, $40 ;2F 
05d0 3e 41 04 49 10 41 3e	        defb $3E, $41, $04, $49, $10, $41, $3E ;30 ASCII "0" 
05d7 00 21 00 7f 00 01 00	        defb $00, $21, $00, $7F, $00, $01, $00 ;31 
05de 21 42 01 44 01 48 31	        defb $21, $42, $01, $44, $01, $48, $31 ;32 
05e5 42 01 40 09 50 29 46	        defb $42, $01, $40, $09, $50, $29, $46 ;33 
05ec 04 08 14 20 44 1b 04	        defb $04, $08, $14, $20, $44, $1B, $04 ;34 
05f3 72 01 50 01 50 01 4e	        defb $72, $01, $50, $01, $50, $01, $4E ;35 
05fa 06 09 10 29 40 09 06	        defb $06, $09, $10, $29, $40, $09, $06 ;36 
0601 41 02 44 08 50 20 40	        defb $41, $02, $44, $08, $50, $20, $40 ;37 
0608 36 49 00 49 00 49 36	        defb $36, $49, $00, $49, $00, $49, $36 ;38 
060f 30 48 01 4a 04 48 30	        defb $30, $48, $01, $4A, $04, $48, $30 ;39 
0616 00 00 36 00 36 00 00	        defb $00, $00, $36, $00, $36, $00, $00 ;3A 
061d 00 00 6d 02 6c 00 00	        defb $00, $00, $6D, $02, $6C, $00, $00 ;3B 
0624 00 08 14 22 41 00 00	        defb $00, $08, $14, $22, $41, $00, $00 ;3C 
062b 14 00 14 00 14 00 14	        defb $14, $00, $14, $00, $14, $00, $14 ;3D 
0632 00 00 41 22 14 08 00	        defb $00, $00, $41, $22, $14, $08, $00 ;3E 
0639 20 40 00 45 08 50 20	        defb $20, $40, $00, $45, $08, $50, $20 ;3F 
0640 3e 41 00 59 24 41 3c	        defb $3E, $41, $00, $59, $24, $41, $3C ;40 
0647 0f 10 24 40 24 10 0f	        defb $0F, $10, $24, $40, $24, $10, $0F ;41 ASCII "A" 
064e 41 3e 41 08 41 08 36	        defb $41, $3E, $41, $08, $41, $08, $36 ;42 
0655 3e 41 00 41 00 41 22	        defb $3E, $41, $00, $41, $00, $41, $22 ;43 
065c 41 3e 41 00 41 00 3e	        defb $41, $3E, $41, $00, $41, $00, $3E ;44 
0663 7f 00 49 00 49 00 41	        defb $7F, $00, $49, $00, $49, $00, $41 ;45 
066a 7f 00 48 00 48 00 40	        defb $7F, $00, $48, $00, $48, $00, $40 ;46 
0671 3e 41 00 41 04 41 26	        defb $3E, $41, $00, $41, $04, $41, $26 ;47 
0678 7f 00 08 00 08 00 7f	        defb $7F, $00, $08, $00, $08, $00, $7F ;48 
067f 00 41 00 7f 00 41 00	        defb $00, $41, $00, $7F, $00, $41, $00 ;49 
0686 02 01 00 01 00 01 7e	        defb $02, $01, $00, $01, $00, $01, $7E ;4A 
068d 7f 00 10 08 24 02 41	        defb $7F, $00, $10, $08, $24, $02, $41 ;4B 
0694 7f 00 01 00 01 00 01	        defb $7F, $00, $01, $00, $01, $00, $01 ;4C 
069b 5f 20 10 08 10 20 5f	        defb $5F, $20, $10, $08, $10, $20, $5F ;4D 
06a2 5f 20 10 08 04 02 7d	        defb $5F, $20, $10, $08, $04, $02, $7D ;4E 
06a9 3e 41 00 41 00 41 3e	        defb $3E, $41, $00, $41, $00, $41, $3E ;4F 
06b0 7f 00 48 00 48 00 30	        defb $7F, $00, $48, $00, $48, $00, $30 ;50 
06b7 3e 41 00 41 04 42 3d	        defb $3E, $41, $00, $41, $04, $42, $3D ;51 
06be 7f 00 48 00 4c 02 31	        defb $7F, $00, $48, $00, $4C, $02, $31 ;52 ASCII "R" 
06c5 32 49 00 49 00 49 26	        defb $32, $49, $00, $49, $00, $49, $26 ;52 
06cc 40 00 40 3f 40 00 40	        defb $40, $00, $40, $3F, $40, $00, $40 ;53 
06d3 7e 01 00 01 00 01 7e	        defb $7E, $01, $00, $01, $00, $01, $7E 
06da 78 04 02 01 02 04 78	        defb $78, $04, $02, $01, $02, $04, $78 
06e1 7e 01 02 0c 02 01 7e	        defb $7E, $01, $02, $0C, $02, $01, $7E 
06e8 41 22 14 08 14 22 41	        defb $41, $22, $14, $08, $14, $22, $41 
06ef 40 20 10 0f 10 20 40	        defb $40, $20, $10, $0F, $10, $20, $40 
06f6 41 02 45 08 51 20 41	        defb $41, $02, $45, $08, $51, $20, $41 
06fd 00 7f 00 41 00 41 00	        defb $00, $7F, $00, $41, $00, $41, $00 
0704 40 20 10 08 04 02 01	        defb $40, $20, $10, $08, $04, $02, $01 
070b 00 41 00 41 00 7f 00	        defb $00, $41, $00, $41, $00, $7F, $00 
0712 08 10 20 5f 20 10 08	        defb $08, $10, $20, $5F, $20, $10, $08 
0719 01 00 01 00 01 00 01	        defb $01, $00, $01, $00, $01, $00, $01 
0720 00 00 40 20 10 00 00	        defb $00, $00, $40, $20, $10, $00, $00 
0727 02 15 00 15 00 14 0b	        defb $02, $15, $00, $15, $00, $14, $0B 
072e 7f 00 10 01 10 01 0e	        defb $7F, $00, $10, $01, $10, $01, $0E 
0735 0e 00 11 00 11 00 11	        defb $0E, $00, $11, $00, $11, $00, $11 
073c 0e 01 10 01 10 00 7f	        defb $0E, $01, $10, $01, $10, $00, $7F 
0743 0e 01 14 01 14 01 0c	        defb $0E, $01, $14, $01, $14, $01, $0C 
074a 10 00 3f 40 10 40 20	        defb $10, $00, $3F, $40, $10, $40, $20 
0751 09 14 01 14 01 14 2b	        defb $09, $14, $01, $14, $01, $14, $2B 
0758 7f 00 10 00 10 00 0f	        defb $7F, $00, $10, $00, $10, $00, $0F 
075f 00 11 00 5f 00 01 00	        defb $00, $11, $00, $5F, $00, $01, $00 
0766 00 02 01 00 01 00 5e	        defb $00, $02, $01, $00, $01, $00, $5E 
076d 7f 00 04 00 0a 00 11	        defb $7F, $00, $04, $00, $0A, $00, $11 
0774 00 41 00 7f 00 01 00	        defb $00, $41, $00, $7F, $00, $01, $00 
077b 0f 10 08 04 08 10 0f	        defb $0F, $10, $08, $04, $08, $10, $0F 
0782 10 0f 00 10 00 10 0f	        defb $10, $0F, $00, $10, $00, $10, $0F 
0789 0e 00 11 00 11 00 0e	        defb $0E, $00, $11, $00, $11, $00, $0E 
0790 1f 00 04 10 04 10 08	        defb $1F, $00, $04, $10, $04, $10, $08 
0797 08 14 00 14 00 04 1b	        defb $08, $14, $00, $14, $00, $04, $1B 
079e 10 0f 00 10 00 10 08	        defb $10, $0F, $00, $10, $00, $10, $08 
07a5 08 15 00 15 00 15 02	        defb $08, $15, $00, $15, $00, $15, $02 
07ac 10 00 3e 01 10 01 02	        defb $10, $00, $3E, $01, $10, $01, $02 
07b3 1e 01 00 01 00 1e 01	        defb $1E, $01, $00, $01, $00, $1E, $01 
07ba 18 04 02 01 02 04 18	        defb $18, $04, $02, $01, $02, $04, $18 
07c1 1e 01 02 04 02 01 1e	        defb $1E, $01, $02, $04, $02, $01, $1E 
07c8 11 0a 00 04 00 0a 11	        defb $11, $0A, $00, $04, $00, $0A, $11 
07cf 10 08 05 02 00 04 18	        defb $10, $08, $05, $02, $00, $04, $18 
07d6 11 02 11 04 11 08 11	        defb $11, $02, $11, $04, $11, $08, $11 
07dd 08 00 08 36 41 00 41	        defb $08, $00, $08, $36, $41, $00, $41 
07e4 00 00 00 77 00 00 00	        defb $00, $00, $00, $77, $00, $00, $00 
07eb 41 00 41 36 08 00 08	        defb $41, $00, $41, $36, $08, $00, $08 
07f2 40 00 40 00 40 00 40	        defb $40, $00, $40, $00, $40, $00, $40 
07f9 02 01 00 51 08 05 02	        defb $02, $01, $00, $51, $08, $05, $02 
0800			 
0800			 
0800			; $0000 CCCCCC--CCCCCCCCCCCCCCCCCCCCCCC-CCCCCCCCCCCCC---CCCCCC--CCCCCCCCCCCCCCCCCCCCCCCC 
0800			; $0050 CCCCCCCCCCCCCCCCCCCC--CCCCCCCCCCCCCCCCCCCCCCCCCCCCCCCCCCCCCCCCCCCCCCCCCCCCCCCCCC 
0800			; $00A0 CCCCCCCCCCCCCCCCCCCCCCCCCCCCCCCCCCCCCCCCCCCCCCCCCCCCCCCCCCCCCCCCCCCCCCCCCCCCCCCC 
0800			; $00F0 CCCCCCCCCCCCCCCCCCCCCCCCCCCCCCCCCCCCCCCCCCCCCCCCCCCCCCCCCCCCCCCCCCCCCCCCCCCCCCCC 
0800			; $0140 CCCCCCCCCCCCCCCCCCCCCCCCCCCCCCCCCCCCCCCCCCCCCCCCCCCCCCCCCCCCCCCCCCCCCCCCCCCCCCCC 
0800			; $0190 CCCCCCCCCCCCCCCCCCCCCCCCCCCCCCCCCCCCCCCCCCCCCCCCCCCCCCCCCCCCCCCCCCCCCCCCCCCCCCCC 
0800			; $01E0 CCCCCCCCCCCCCCCCCCCCCCCCCCCCCCCCCCCCCCCCCCCCCCCCCCCCCCCCCCCCCCCCCCCCCCCCCCCCCCCC 
0800			; $0230 CCCCCCCCCCCCCCCCCCCCCCCCCCCCCCCCCCCCCCCCCCCCCCCCCCCCCCCCCCCCCCCCCCCCCCCCCCCCCCCC 
0800			; $0280 CCCCCCCCCCCCCCCCCCCCCCCCCCCCCCCCCCCCCCCCCCCCCCCCCCCCCCCCCCCCCCCCCCCCCCCCCCCCCCCC 
0800			; $02D0 CCCCCCCCCCCCCCCCCCCCCCCCCCCCCCCCCCCCCCCCCCCCCCCCCCCCCCCCCCCCCCCCCCCCCCCCCCCCCCCC 
0800			; $0320 CCCCCCCCCCCCCCCCCCCCCCCCCCCCCCCCCCCCCCCCCCCCCCCCCCCCCCCCCCCCCCCCCCCCCCCCCCCCCCCC 
0800			; $0370 CCCCCCCCCCCCCCCCCCCCCCCCCCCCCCCCCCCCCCCCCCCCCCCCCCCCCCCCCCCCCCCCCCCCCCCCCCCCCCCC 
0800			; $03C0 CCCCCCCCCCCCCCCCCCCCCCCCCCCCCCCCCCCCCCCCCCCCCCCCCCCCCCCCCCCCCCCCCCCCCCCCCCCCCCCC 
0800			; $0410 CCCCCCCCCCCCCCCCCCCCCCCCCCCCCCCCCCCCCCCCCCCCCCCCCCCCCCCCCCCCCCCCCCCCCCCCCCCCCCCC 
0800			; $0460 CCCCCCCCCCCCCCCCCCCCCCCCCCCCCCCCCCCCCCCCCCCCCCCCCCCCCCCCCCCCCCCCCCCCCCCCCCCCCCCC 
0800			; $04B0 CCCCCCCCCCCCCCCCCCCCCCCCCCCCCCCCCCCCCCCCCCCCCCCCCCCCCCCCCCCCCCCCCCCCCCCCCCCCCCCC 
0800			; $0500 CCCCCCCCCCCCCCCCCCCCCCCCCCCCCCCCCCC--------------------------------------------- 
0800			; $0550 ----------------BBBBBBBBBBBBBBBBBBBBBBBBBBBBBBBBBBBBBBBBBBBBBBBBBBBBBBBBBBBBBBBB 
0800			; $05A0 BBBBBBBBBBBBBBBBBBBBBBBBBBBBBBBBBBBBBBBBBBBBBBBBBBBBBBBBBBBBBBBBBBBBBBBBBBBBBBBB 
0800			; $05F0 BBBBBBBBBBBBBBBBBBBBBBBBBBBBBBBBBBBBBBBBBBBBBBBBBBBBBBBBBBBBBBBBBBBBBBBBBBBBBBBB 
0800			; $0640 BBBBBBBBBBBBBBBBBBBBBBBBBBBBBBBBBBBBBBBBBBBBBBBBBBBBBBBBBBBBBBBBBBBBBBBBBBBBBBBB 
0800			; $0690 BBBBBBBBBBBBBBBBBBBBBBBBBBBBBBBBBBBBBBBBBBBBBBBBBBBBBBBBBBBBBBBBBBBBBBBBBBBBBBBB 
0800			; $06E0 BBBBBBBBBBBBBBBBBBBBBBBBBBBBBBBBBBBBBBBBBBBBBBBBBBBBBBBBBBBBBBBBBBBBBBBBBBBBBBBB 
0800			; $0730 BBBBBBBBBBBBBBBBBBBBBBBBBBBBBBBBBBBBBBBBBBBBBBBBBBBBBBBBBBBBBBBBBBBBBBBBBBBBBBBB 
0800			; $0780 BBBBBBBBBBBBBBBBBBBBBBBBBBBBBBBBBBBBBBBBBBBBBBBBBBBBBBBBBBBBBBBBBBBBBBBBBBBBBBBB 
0800			; $07D0 BBBBBBBBBBBBBBBBBBBBBBBBBBBBBBBBBBBBBBBBBBBBBBB 
0800			 
0800			; Labels 
0800			; 
0800			; $0000 => COLD           COLD    => $0000 
0800			; $0008 => X_RST8         COLD1   => $026A 
0800			; $0010 => X_RST10        L_0043  => $0043 
0800			; $0018 => X_RST18        L_0048  => $0048 
0800			; $0020 => X_RST20        L_0054  => $0054 
0800			; $0030 => X_RST30        L_0056  => $0056 
0800			; $0038 => X_RST38        L_0087  => $0087 
0800			; $0043 => L_0043         L_00A4  => $00A4 
0800			; $0048 => L_0048         L_00BB  => $00BB 
0800			; $0054 => L_0054         L_00BD  => $00BD 
0800			; $0056 => L_0056         L_00FC  => $00FC 
0800			; $0066 => X_NMI          L_0107  => $0107 
0800			; $0074 => X_0074         L_0108  => $0108 
0800			; $0087 => L_0087         L_010D  => $010D 
0800			; $008B => X_008B         L_0118  => $0118 
0800			; $00A4 => L_00A4         L_0122  => $0122 
0800			; $00AD => X_00AD         L_0131  => $0131 
0800			; $00BB => L_00BB         L_0145  => $0145 
0800			; $00BD => L_00BD         L_0162  => $0162 
0800			; $00D6 => X_00D6         L_016D  => $016D 
0800			; $00FC => L_00FC         L_016E  => $016E 
0800			; $0107 => L_0107         L_016F  => $016F 
0800			; $0108 => L_0108         L_018A  => $018A 
0800			; $010D => L_010D         L_01E1  => $01E1 
0800			; $0118 => L_0118         L_01F5  => $01F5 
0800			; $0122 => L_0122         L_01F8  => $01F8 
0800			; $0131 => L_0131         L_01FE  => $01FE 
0800			; $0145 => L_0145         L_0204  => $0204 
0800			; $0162 => L_0162         L_0213  => $0213 
0800			; $016D => L_016D         L_0217  => $0217 
0800			; $016E => L_016E         L_021B  => $021B 
0800			; $016F => L_016F         L_021F  => $021F 
0800			; $018A => L_018A         L_0223  => $0223 
0800			; $01E1 => L_01E1         L_0237  => $0237 
0800			; $01F5 => L_01F5         L_0239  => $0239 
0800			; $01F8 => L_01F8         L_023C  => $023C 
0800			; $01FE => L_01FE         L_0243  => $0243 
0800			; $0204 => L_0204         L_0247  => $0247 
0800			; $0213 => L_0213         L_0252  => $0252 
0800			; $0217 => L_0217         L_0268  => $0268 
0800			; $021B => L_021B         L_02CC  => $02CC 
0800			; $021F => L_021F         L_02CE  => $02CE 
0800			; $0223 => L_0223         L_02DA  => $02DA 
0800			; $0237 => L_0237         L_02DF  => $02DF 
0800			; $0239 => L_0239         L_02F8  => $02F8 
0800			; $023C => L_023C         L_02FE  => $02FE 
0800			; $0243 => L_0243         L_030F  => $030F 
0800			; $0247 => L_0247         L_0326  => $0326 
0800			; $0252 => L_0252         L_0340  => $0340 
0800			; $0268 => L_0268         L_0348  => $0348 
0800			; $026A => COLD1          L_0350  => $0350 
0800			; $02CC => L_02CC         L_0354  => $0354 
0800			; $02CE => L_02CE         L_035E  => $035E 
0800			; $02DA => L_02DA         L_0369  => $0369 
0800			; $02DF => L_02DF         L_036C  => $036C 
0800			; $02F8 => L_02F8         L_0378  => $0378 
0800			; $02FE => L_02FE         L_037A  => $037A 
0800			; $030F => L_030F         L_0382  => $0382 
0800			; $0326 => L_0326         L_0387  => $0387 
0800			; $0340 => L_0340         L_039D  => $039D 
0800			; $0348 => L_0348         L_03AD  => $03AD 
0800			; $0350 => L_0350         L_03B5  => $03B5 
0800			; $0354 => L_0354         L_03D3  => $03D3 
0800			; $035E => L_035E         L_03DC  => $03DC 
0800			; $0369 => L_0369         L_03E9  => $03E9 
0800			; $036C => L_036C         L_03F3  => $03F3 
0800			; $0378 => L_0378         L_0405  => $0405 
0800			; $037A => L_037A         L_040B  => $040B 
0800			; $0382 => L_0382         L_041A  => $041A 
0800			; $0387 => L_0387         L_0422  => $0422 
0800			; $039D => L_039D         L_0433  => $0433 
0800			; $03AD => L_03AD         L_0441  => $0441 
0800			; $03B5 => L_03B5         L_0449  => $0449 
0800			; $03D3 => L_03D3         L_044B  => $044B 
0800			; $03DC => L_03DC         L_0458  => $0458 
0800			; $03E9 => L_03E9         L_0465  => $0465 
0800			; $03F3 => L_03F3         L_0468  => $0468 
0800			; $0405 => L_0405         L_046C  => $046C 
0800			; $040B => L_040B         L_047E  => $047E 
0800			; $041A => L_041A         L_048A  => $048A 
0800			; $0422 => L_0422         L_0496  => $0496 
0800			; $0433 => L_0433         L_0499  => $0499 
0800			; $0441 => L_0441         L_0501  => $0501 
0800			; $0449 => L_0449         L_0504  => $0504 
0800			; $044B => L_044B         L_051F  => $051F 
0800			; $0458 => L_0458         L_2800  => $2800 
0800			; $0465 => L_0465         X_0074  => $0074 
0800			; $0468 => L_0468         X_008B  => $008B 
0800			; $046C => L_046C         X_00AD  => $00AD 
0800			; $047E => L_047E         X_00D6  => $00D6 
0800			; $048A => L_048A         X_04D7  => $04D7 
0800			; $0496 => L_0496         X_04E7  => $04E7 
0800			; $0499 => L_0499         X_NMI   => $0066 
0800			; $04D7 => X_04D7         X_RST10 => $0010 
0800			; $04E7 => X_04E7         X_RST18 => $0018 
0800			; $0501 => L_0501         X_RST20 => $0020 
0800			; $0504 => L_0504         X_RST30 => $0030 
0800			; $051F => L_051F         X_RST38 => $0038 
0800			; $2800 => L_2800         X_RST8  => $0008 
# End of file imp_dis_edit.asm
0800
